; Function Attrs: mustprogress uwtable
define void @_ZN14htif_pthread_tC2EiPPc(ptr noundef nonnull align 8 dereferenceable(896) %0, i32 noundef %1, ptr noundef %2) unnamed_addr #2 align 2 personality ptr @__gxx_personality_v0 {
  tail call void @_ZN6htif_tC2EiPPc(ptr noundef nonnull align 8 dereferenceable(696) %0, i32 noundef %1, ptr noundef %2)
  store ptr getelementptr inbounds ({ [20 x ptr] }, ptr @_ZTV14htif_pthread_t, i64 0, i32 0, i64 2), ptr %0, align 8
  %4 = getelementptr inbounds i8, ptr %0, i64 696
  invoke void @_ZN9context_tC1Ev(ptr noundef nonnull align 8 dereferenceable(32) %4)
          to label %5 unwind label %16

5:                                                ; preds = %3
  %6 = getelementptr inbounds i8, ptr %0, i64 736
  tail call void @_ZNSaIcEC2Ev(ptr noundef nonnull align 1 dereferenceable(1) %6) #16
  tail call void @llvm.memset.p0.i64(ptr noundef nonnull align 8 dereferenceable(80) %6, i8 0, i64 80, i1 false)
  invoke void @_ZNSt11_Deque_baseIcSaIcEE17_M_initialize_mapEm(ptr noundef nonnull align 8 dereferenceable(80) %6, i64 noundef 0)
          to label %_ZNSt5dequeIcSaIcEEC2Ev.exit unwind label %7

7:                                                ; preds = %5
  %8 = landingpad { ptr, i32 }
          cleanup
  tail call void @_ZNSaIcED2Ev(ptr noundef nonnull align 1 dereferenceable(1) %6) #16
  br label %.body

_ZNSt5dequeIcSaIcEEC2Ev.exit:                     ; preds = %5
  %9 = getelementptr inbounds i8, ptr %0, i64 816
  tail call void @_ZNSaIcEC2Ev(ptr noundef nonnull align 1 dereferenceable(1) %9) #16
  tail call void @llvm.memset.p0.i64(ptr noundef nonnull align 8 dereferenceable(80) %9, i8 0, i64 80, i1 false)
  invoke void @_ZNSt11_Deque_baseIcSaIcEE17_M_initialize_mapEm(ptr noundef nonnull align 8 dereferenceable(80) %9, i64 noundef 0)
          to label %_ZNSt5dequeIcSaIcEEC2Ev.exit12 unwind label %10

10:                                               ; preds = %_ZNSt5dequeIcSaIcEEC2Ev.exit
  %11 = landingpad { ptr, i32 }
          cleanup
  tail call void @_ZNSaIcED2Ev(ptr noundef nonnull align 1 dereferenceable(1) %9) #16
  br label %.body10

_ZNSt5dequeIcSaIcEEC2Ev.exit12:                   ; preds = %_ZNSt5dequeIcSaIcEEC2Ev.exit
  %12 = invoke noundef ptr @_ZN9context_t7currentEv()
          to label %13 unwind label %18

13:                                               ; preds = %_ZNSt5dequeIcSaIcEEC2Ev.exit12
  %14 = getelementptr inbounds i8, ptr %0, i64 728
  store ptr %12, ptr %14, align 8
  invoke void @_ZN9context_t4initEPFvPvES0_(ptr noundef nonnull align 8 dereferenceable(32) %4, ptr noundef nonnull @_ZN14htif_pthread_t11thread_mainEPv, ptr noundef nonnull %0)
          to label %15 unwind label %18

15:                                               ; preds = %13
  ret void

16:                                               ; preds = %3
  %17 = landingpad { ptr, i32 }
          cleanup
  br label %20

18:                                               ; preds = %13, %_ZNSt5dequeIcSaIcEEC2Ev.exit12
  %19 = landingpad { ptr, i32 }
          cleanup
  tail call void @_ZNSt5dequeIcSaIcEED2Ev(ptr noundef nonnull align 8 dereferenceable(80) %9) #16
  br label %.body10

.body10:                                          ; preds = %10, %18
  %.pn = phi { ptr, i32 } [ %19, %18 ], [ %11, %10 ]
  tail call void @_ZNSt5dequeIcSaIcEED2Ev(ptr noundef nonnull align 8 dereferenceable(80) %6) #16
  br label %.body

.body:                                            ; preds = %7, %.body10
  %.pn.pn = phi { ptr, i32 } [ %.pn, %.body10 ], [ %8, %7 ]
  tail call void @_ZN9context_tD1Ev(ptr noundef nonnull align 8 dereferenceable(32) %4) #16
  br label %20

20:                                               ; preds = %.body, %16
  %.pn.pn.pn = phi { ptr, i32 } [ %.pn.pn, %.body ], [ %17, %16 ]
  tail call void @_ZN6htif_tD2Ev(ptr noundef nonnull align 8 dereferenceable(696) %0) #16
  resume { ptr, i32 } %.pn.pn.pn
}